target datalayout = "e-m:e-p270:32:32-p271:32:32-p272:64:64-i64:64-i128:128-f80:128-n8:16:32:64-S128"
target triple = "x86_64-pc-linux-gnu"

%struct.Vec_Int_t_ = type { i32, i32, ptr }

; Function Attrs: inlinehint nounwind uwtable
define internal ptr @Vec_IntAlloc(i32 noundef %0) #3 {
  %2 = alloca i32, align 4
  %3 = alloca ptr, align 8
  store i32 %0, ptr %2, align 4, !tbaa !42
  call void @llvm.lifetime.start.p0(i64 8, ptr %3) #12
  %4 = call noalias ptr @malloc(i64 noundef 16) #14
  store ptr %4, ptr %3, align 8, !tbaa !43
  %5 = load i32, ptr %2, align 4, !tbaa !42
  %6 = icmp sgt i32 %5, 0
  br i1 %6, label %7, label %11

7:                                                ; preds = %1
  %8 = load i32, ptr %2, align 4, !tbaa !42
  %9 = icmp slt i32 %8, 16
  br i1 %9, label %10, label %11

10:                                               ; preds = %7
  store i32 16, ptr %2, align 4, !tbaa !42
  br label %11

11:                                               ; preds = %10, %7, %1
  %12 = load ptr, ptr %3, align 8, !tbaa !43
  %13 = getelementptr inbounds nuw %struct.Vec_Int_t_, ptr %12, i32 0, i32 1
  store i32 0, ptr %13, align 4, !tbaa !44
  %14 = load i32, ptr %2, align 4, !tbaa !42
  %15 = load ptr, ptr %3, align 8, !tbaa !43
  %16 = getelementptr inbounds nuw %struct.Vec_Int_t_, ptr %15, i32 0, i32 0
  store i32 %14, ptr %16, align 8, !tbaa !45
  %17 = load ptr, ptr %3, align 8, !tbaa !43
  %18 = getelementptr inbounds nuw %struct.Vec_Int_t_, ptr %17, i32 0, i32 0
  %19 = load i32, ptr %18, align 8, !tbaa !45
  %20 = icmp ne i32 %19, 0
  br i1 %20, label %21, label %28

21:                                               ; preds = %11
  %22 = load ptr, ptr %3, align 8, !tbaa !43
  %23 = getelementptr inbounds nuw %struct.Vec_Int_t_, ptr %22, i32 0, i32 0
  %24 = load i32, ptr %23, align 8, !tbaa !45
  %25 = sext i32 %24 to i64
  %26 = mul i64 4, %25
  %27 = call noalias ptr @malloc(i64 noundef %26) #14
  br label %29

28:                                               ; preds = %11
  br label %29

29:                                               ; preds = %28, %21
  %30 = phi ptr [ %27, %21 ], [ null, %28 ]
  %31 = load ptr, ptr %3, align 8, !tbaa !43
  %32 = getelementptr inbounds nuw %struct.Vec_Int_t_, ptr %31, i32 0, i32 2
  store ptr %30, ptr %32, align 8, !tbaa !46
  %33 = load ptr, ptr %3, align 8, !tbaa !43
  call void @llvm.lifetime.end.p0(i64 8, ptr %3) #12
  ret ptr %33
}

; Function Attrs: inlinehint nounwind uwtable
define internal ptr @Vec_IntArray(ptr noundef %0) #3 {
  %2 = alloca ptr, align 8
  store ptr %0, ptr %2, align 8, !tbaa !43
  %3 = load ptr, ptr %2, align 8, !tbaa !43
  %4 = getelementptr inbounds nuw %struct.Vec_Int_t_, ptr %3, i32 0, i32 2
  %5 = load ptr, ptr %4, align 8, !tbaa !46
  ret ptr %5
}

; Function Attrs: inlinehint nounwind uwtable
define internal ptr @Vec_IntStartNatural(i32 noundef %0) #3 {
  %2 = alloca i32, align 4
  %3 = alloca ptr, align 8
  %4 = alloca i32, align 4
  store i32 %0, ptr %2, align 4, !tbaa !42
  call void @llvm.lifetime.start.p0(i64 8, ptr %3) #12
  call void @llvm.lifetime.start.p0(i64 4, ptr %4) #12
  %5 = load i32, ptr %2, align 4, !tbaa !42
  %6 = call ptr @Vec_IntAlloc(i32 noundef %5)
  store ptr %6, ptr %3, align 8, !tbaa !43
  %7 = load i32, ptr %2, align 4, !tbaa !42
  %8 = load ptr, ptr %3, align 8, !tbaa !43
  %9 = getelementptr inbounds nuw %struct.Vec_Int_t_, ptr %8, i32 0, i32 1
  store i32 %7, ptr %9, align 4, !tbaa !44
  store i32 0, ptr %4, align 4, !tbaa !42
  br label %10

10:                                               ; preds = %22, %1
  %11 = load i32, ptr %4, align 4, !tbaa !42
  %12 = load i32, ptr %2, align 4, !tbaa !42
  %13 = icmp slt i32 %11, %12
  br i1 %13, label %14, label %25

14:                                               ; preds = %10
  %15 = load i32, ptr %4, align 4, !tbaa !42
  %16 = load ptr, ptr %3, align 8, !tbaa !43
  %17 = getelementptr inbounds nuw %struct.Vec_Int_t_, ptr %16, i32 0, i32 2
  %18 = load ptr, ptr %17, align 8, !tbaa !46
  %19 = load i32, ptr %4, align 4, !tbaa !42
  %20 = sext i32 %19 to i64
  %21 = getelementptr inbounds i32, ptr %18, i64 %20
  store i32 %15, ptr %21, align 4, !tbaa !42
  br label %22

22:                                               ; preds = %14
  %23 = load i32, ptr %4, align 4, !tbaa !42
  %24 = add nsw i32 %23, 1
  store i32 %24, ptr %4, align 4, !tbaa !42
  br label %10, !llvm.loop !155

25:                                               ; preds = %10
  %26 = load ptr, ptr %3, align 8, !tbaa !43
  call void @llvm.lifetime.end.p0(i64 4, ptr %4) #12
  call void @llvm.lifetime.end.p0(i64 8, ptr %3) #12
  ret ptr %26
}

; Function Attrs: nounwind uwtable
define ptr @Gia_IsoTestGenPerm(i32 noundef %0) #0 {
  %2 = alloca i32, align 4
  %3 = alloca ptr, align 8
  %4 = alloca i32, align 4
  %5 = alloca ptr, align 8
  %6 = alloca i32, align 4
  %7 = alloca i32, align 4
  store i32 %0, ptr %2, align 4, !tbaa !42
  call void @llvm.lifetime.start.p0(i64 8, ptr %3) #12
  call void @llvm.lifetime.start.p0(i64 4, ptr %4) #12
  call void @llvm.lifetime.start.p0(i64 8, ptr %5) #12
  %8 = load i32, ptr %2, align 4, !tbaa !42
  %9 = call ptr @Vec_IntStartNatural(i32 noundef %8)
  store ptr %9, ptr %3, align 8, !tbaa !43
  %10 = load ptr, ptr %3, align 8, !tbaa !43
  %11 = call ptr @Vec_IntArray(ptr noundef %10)
  store ptr %11, ptr %5, align 8, !tbaa !64
  store i32 0, ptr %4, align 4, !tbaa !42
  br label %12

12:                                               ; preds = %39, %1
  %13 = load i32, ptr %4, align 4, !tbaa !42
  %14 = load i32, ptr %2, align 4, !tbaa !42
  %15 = icmp slt i32 %13, %14
  br i1 %15, label %16, label %42

16:                                               ; preds = %12
  call void @llvm.lifetime.start.p0(i64 4, ptr %6) #12
  %17 = call i32 @rand() #12
  %18 = load i32, ptr %2, align 4, !tbaa !42
  %19 = srem i32 %17, %18
  store i32 %19, ptr %6, align 4, !tbaa !42
  call void @llvm.lifetime.start.p0(i64 4, ptr %7) #12
  %20 = load ptr, ptr %5, align 8, !tbaa !64
  %21 = load i32, ptr %4, align 4, !tbaa !42
  %22 = sext i32 %21 to i64
  %23 = getelementptr inbounds i32, ptr %20, i64 %22
  %24 = load i32, ptr %23, align 4, !tbaa !42
  store i32 %24, ptr %7, align 4, !tbaa !42
  %25 = load ptr, ptr %5, align 8, !tbaa !64
  %26 = load i32, ptr %6, align 4, !tbaa !42
  %27 = sext i32 %26 to i64
  %28 = getelementptr inbounds i32, ptr %25, i64 %27
  %29 = load i32, ptr %28, align 4, !tbaa !42
  %30 = load ptr, ptr %5, align 8, !tbaa !64
  %31 = load i32, ptr %4, align 4, !tbaa !42
  %32 = sext i32 %31 to i64
  %33 = getelementptr inbounds i32, ptr %30, i64 %32
  store i32 %29, ptr %33, align 4, !tbaa !42
  %34 = load i32, ptr %7, align 4, !tbaa !42
  %35 = load ptr, ptr %5, align 8, !tbaa !64
  %36 = load i32, ptr %6, align 4, !tbaa !42
  %37 = sext i32 %36 to i64
  %38 = getelementptr inbounds i32, ptr %35, i64 %37
  store i32 %34, ptr %38, align 4, !tbaa !42
  call void @llvm.lifetime.end.p0(i64 4, ptr %7) #12
  call void @llvm.lifetime.end.p0(i64 4, ptr %6) #12
  br label %39

39:                                               ; preds = %16
  %40 = load i32, ptr %4, align 4, !tbaa !42
  %41 = add nsw i32 %40, 1
  store i32 %41, ptr %4, align 4, !tbaa !42
  br label %12, !llvm.loop !154

42:                                               ; preds = %12
  %43 = load ptr, ptr %3, align 8, !tbaa !43
  call void @llvm.lifetime.end.p0(i64 8, ptr %5) #12
  call void @llvm.lifetime.end.p0(i64 4, ptr %4) #12
  call void @llvm.lifetime.end.p0(i64 8, ptr %3) #12
  ret ptr %43
}